; Function Attrs: mustprogress uwtable
define void @_ZN19OpenColorIO_v2_5dev9FileRulesC2Ev(ptr noundef nonnull writeonly align 8 captures(none) dereferenceable(16) initializes((0, 8)) %0) unnamed_addr #0 align 2 personality ptr @__gxx_personality_v0 {
  store ptr getelementptr inbounds nuw inrange(-16, 16) (i8, ptr @_ZTVN19OpenColorIO_v2_5dev9FileRulesE, i64 16), ptr %0, align 8, !tbaa !3
  %2 = tail call noalias noundef nonnull dereferenceable(24) ptr @_Znwm(i64 noundef 24) #29
  invoke void @_ZN19OpenColorIO_v2_5dev9FileRules4ImplC1Ev(ptr noundef nonnull align 8 dereferenceable(24) %2)
          to label %3 unwind label %5

3:                                                ; preds = %1
  %4 = getelementptr inbounds nuw i8, ptr %0, i64 8
  store ptr %2, ptr %4, align 8, !tbaa !6
  ret void

5:                                                ; preds = %1
  %6 = landingpad { ptr, i32 }
          cleanup
  tail call void @_ZdlPvm(ptr noundef nonnull %2, i64 noundef 24) #30
  resume { ptr, i32 } %6
}